target datalayout = "e-m:e-p270:32:32-p271:32:32-p272:64:64-i64:64-i128:128-f80:128-n8:16:32:64-S128"
target triple = "x86_64-pc-linux-gnu"

%struct._GtkDarktableThumbnailBtn = type { %struct._GtkDrawingArea, ptr, i32, ptr, i32 }
%struct._GtkDrawingArea = type { %struct._GtkWidget, ptr }
%struct._GtkWidget = type { %struct._GObject, ptr }
%struct._GObject = type { %struct._GTypeInstance, i32, ptr }
%struct._GTypeInstance = type { ptr }
%struct._GTypeClass = type { i64 }

@dtgtk_thumbnail_btn_get_type.static_g_define_type_id = internal global i64 0, align 8
@__func__.dtgtk_thumbnail_btn_is_hidden = private unnamed_addr constant [30 x i8] c"dtgtk_thumbnail_btn_is_hidden\00", align 1
@.str.2 = private unnamed_addr constant [31 x i8] c"DTGTK_IS_THUMBNAIL_BTN(widget)\00", align 1

; Function Attrs: nounwind uwtable
define i64 @dtgtk_thumbnail_btn_get_type() #0 {
  %1 = alloca i32, align 4
  %2 = alloca i64, align 8
  %3 = alloca ptr, align 8
  %4 = alloca i64, align 8
  %5 = alloca i64, align 8
  call void @llvm.lifetime.start.p0(i64 8, ptr %2) #8
  call void @llvm.lifetime.start.p0(i64 8, ptr %3) #8
  store ptr @dtgtk_thumbnail_btn_get_type.static_g_define_type_id, ptr %3, align 8, !tbaa !6
  %6 = load ptr, ptr %3, align 8, !tbaa !6
  %7 = load atomic i64, ptr %6 seq_cst, align 8
  store i64 %7, ptr %2, align 8
  %8 = load i64, ptr %2, align 8, !tbaa !11
  store i64 %8, ptr %4, align 8, !tbaa !11
  call void @llvm.lifetime.end.p0(i64 8, ptr %3) #8
  call void @llvm.lifetime.end.p0(i64 8, ptr %2) #8
  %9 = load i64, ptr %4, align 8, !tbaa !11
  %10 = icmp ne i64 %9, 0
  br i1 %10, label %14, label %11

11:                                               ; preds = %0
  %12 = call i32 @g_once_init_enter(ptr noundef @dtgtk_thumbnail_btn_get_type.static_g_define_type_id)
  %13 = icmp ne i32 %12, 0
  br label %14

14:                                               ; preds = %11, %0
  %15 = phi i1 [ false, %0 ], [ %13, %11 ]
  %16 = zext i1 %15 to i32
  store i32 %16, ptr %1, align 4, !tbaa !13
  %17 = load i32, ptr %1, align 4, !tbaa !13
  %18 = icmp ne i32 %17, 0
  br i1 %18, label %19, label %22

19:                                               ; preds = %14
  call void @llvm.lifetime.start.p0(i64 8, ptr %5) #8
  %20 = call i64 @dtgtk_thumbnail_btn_get_type_once()
  store i64 %20, ptr %5, align 8, !tbaa !11
  %21 = load i64, ptr %5, align 8, !tbaa !11
  call void @g_once_init_leave(ptr noundef @dtgtk_thumbnail_btn_get_type.static_g_define_type_id, i64 noundef %21)
  call void @llvm.lifetime.end.p0(i64 8, ptr %5) #8
  br label %22

22:                                               ; preds = %19, %14
  %23 = load i64, ptr @dtgtk_thumbnail_btn_get_type.static_g_define_type_id, align 8, !tbaa !11
  ret i64 %23
}

; Function Attrs: inlinehint nounwind uwtable
define internal ptr @DTGTK_THUMBNAIL_BTN(ptr noundef %0) #5 {
  %2 = alloca ptr, align 8
  store ptr %0, ptr %2, align 8, !tbaa !15
  %3 = load ptr, ptr %2, align 8, !tbaa !15
  %4 = call i64 @dtgtk_thumbnail_btn_get_type()
  %5 = call ptr @g_type_check_instance_cast(ptr noundef %3, i64 noundef %4)
  ret ptr %5
}

; Function Attrs: inlinehint nounwind uwtable
define internal i32 @DTGTK_IS_THUMBNAIL_BTN(ptr noundef %0) #5 {
  %2 = alloca ptr, align 8
  %3 = alloca ptr, align 8
  %4 = alloca i64, align 8
  %5 = alloca i32, align 4
  %6 = alloca i32, align 4
  store ptr %0, ptr %2, align 8, !tbaa !15
  call void @llvm.lifetime.start.p0(i64 8, ptr %3) #8
  %7 = load ptr, ptr %2, align 8, !tbaa !15
  store ptr %7, ptr %3, align 8, !tbaa !32
  call void @llvm.lifetime.start.p0(i64 8, ptr %4) #8
  %8 = call i64 @dtgtk_thumbnail_btn_get_type()
  store i64 %8, ptr %4, align 8, !tbaa !11
  call void @llvm.lifetime.start.p0(i64 4, ptr %5) #8
  %9 = load ptr, ptr %3, align 8, !tbaa !32
  %10 = icmp ne ptr %9, null
  br i1 %10, label %12, label %11

11:                                               ; preds = %1
  store i32 0, ptr %5, align 4, !tbaa !13
  br label %31

12:                                               ; preds = %1
  %13 = load ptr, ptr %3, align 8, !tbaa !32
  %14 = getelementptr inbounds nuw %struct._GTypeInstance, ptr %13, i32 0, i32 0
  %15 = load ptr, ptr %14, align 8, !tbaa !34
  %16 = icmp ne ptr %15, null
  br i1 %16, label %17, label %26

17:                                               ; preds = %12
  %18 = load ptr, ptr %3, align 8, !tbaa !32
  %19 = getelementptr inbounds nuw %struct._GTypeInstance, ptr %18, i32 0, i32 0
  %20 = load ptr, ptr %19, align 8, !tbaa !34
  %21 = getelementptr inbounds nuw %struct._GTypeClass, ptr %20, i32 0, i32 0
  %22 = load i64, ptr %21, align 8, !tbaa !35
  %23 = load i64, ptr %4, align 8, !tbaa !11
  %24 = icmp eq i64 %22, %23
  br i1 %24, label %25, label %26

25:                                               ; preds = %17
  store i32 1, ptr %5, align 4, !tbaa !13
  br label %30

26:                                               ; preds = %17, %12
  %27 = load ptr, ptr %3, align 8, !tbaa !32
  %28 = load i64, ptr %4, align 8, !tbaa !11
  %29 = call i32 @g_type_check_instance_is_a(ptr noundef %27, i64 noundef %28) #10
  store i32 %29, ptr %5, align 4, !tbaa !13
  br label %30

30:                                               ; preds = %26, %25
  br label %31

31:                                               ; preds = %30, %11
  %32 = load i32, ptr %5, align 4, !tbaa !13
  store i32 %32, ptr %6, align 4, !tbaa !13
  call void @llvm.lifetime.end.p0(i64 4, ptr %5) #8
  call void @llvm.lifetime.end.p0(i64 8, ptr %4) #8
  call void @llvm.lifetime.end.p0(i64 8, ptr %3) #8
  %33 = load i32, ptr %6, align 4, !tbaa !13
  ret i32 %33
}

; Function Attrs: nounwind uwtable
define i32 @dtgtk_thumbnail_btn_is_hidden(ptr noundef %0) #0 {
  %2 = alloca i32, align 4
  %3 = alloca ptr, align 8
  %4 = alloca i32, align 4
  %5 = alloca i32, align 4
  store ptr %0, ptr %3, align 8, !tbaa !29
  br label %6

6:                                                ; preds = %1
  call void @llvm.lifetime.start.p0(i64 4, ptr %4) #8
  %7 = load ptr, ptr %3, align 8, !tbaa !29
  %8 = call i32 @DTGTK_IS_THUMBNAIL_BTN(ptr noundef %7)
  %9 = icmp ne i32 %8, 0
  br i1 %9, label %10, label %11

10:                                               ; preds = %6
  store i32 1, ptr %4, align 4, !tbaa !13
  br label %12

11:                                               ; preds = %6
  store i32 0, ptr %4, align 4, !tbaa !13
  br label %12

12:                                               ; preds = %11, %10
  %13 = load i32, ptr %4, align 4, !tbaa !13
  store i32 %13, ptr %5, align 4, !tbaa !13
  call void @llvm.lifetime.end.p0(i64 4, ptr %4) #8
  %14 = load i32, ptr %5, align 4, !tbaa !13
  %15 = sext i32 %14 to i64
  %16 = call i64 @llvm.expect.i64(i64 %15, i64 1)
  %17 = icmp ne i64 %16, 0
  br i1 %17, label %18, label %19

18:                                               ; preds = %12
  br label %20

19:                                               ; preds = %12
  call void @g_return_if_fail_warning(ptr noundef null, ptr noundef @__func__.dtgtk_thumbnail_btn_is_hidden, ptr noundef @.str.2)
  store i32 1, ptr %2, align 4
  br label %26

20:                                               ; preds = %18
  br label %21

21:                                               ; preds = %20
  %22 = load ptr, ptr %3, align 8, !tbaa !29
  %23 = call ptr @DTGTK_THUMBNAIL_BTN(ptr noundef %22)
  %24 = getelementptr inbounds nuw %struct._GtkDarktableThumbnailBtn, ptr %23, i32 0, i32 4
  %25 = load i32, ptr %24, align 8, !tbaa !31
  store i32 %25, ptr %2, align 4
  br label %26

26:                                               ; preds = %21, %19
  %27 = load i32, ptr %2, align 4
  ret i32 %27
}