; Function Attrs: nounwind uwtable
define i32 @dtgtk_thumbnail_btn_is_hidden(ptr noundef %0) local_unnamed_addr #0 {
  %2 = load atomic i64, ptr @dtgtk_thumbnail_btn_get_type.static_g_define_type_id seq_cst, align 8
  %.not.i.i = icmp eq i64 %2, 0
  br i1 %.not.i.i, label %3, label %dtgtk_thumbnail_btn_get_type.exit.i

3:                                                ; preds = %1
  %4 = tail call i32 @g_once_init_enter(ptr noundef nonnull @dtgtk_thumbnail_btn_get_type.static_g_define_type_id) #7
  %.not4.i.i = icmp eq i32 %4, 0
  br i1 %.not4.i.i, label %dtgtk_thumbnail_btn_get_type.exit.i, label %5

5:                                                ; preds = %3
  %6 = tail call fastcc i64 @dtgtk_thumbnail_btn_get_type_once()
  tail call void @g_once_init_leave(ptr noundef nonnull @dtgtk_thumbnail_btn_get_type.static_g_define_type_id, i64 noundef %6) #7
  br label %dtgtk_thumbnail_btn_get_type.exit.i

dtgtk_thumbnail_btn_get_type.exit.i:              ; preds = %5, %3, %1
  %7 = load i64, ptr @dtgtk_thumbnail_btn_get_type.static_g_define_type_id, align 8, !tbaa !6
  %.not.i = icmp eq ptr %0, null
  br i1 %.not.i, label %DTGTK_IS_THUMBNAIL_BTN.exit.thread, label %8

8:                                                ; preds = %dtgtk_thumbnail_btn_get_type.exit.i
  %9 = load ptr, ptr %0, align 8, !tbaa !23
  %.not10.i = icmp eq ptr %9, null
  br i1 %.not10.i, label %DTGTK_IS_THUMBNAIL_BTN.exit, label %10

10:                                               ; preds = %8
  %11 = load i64, ptr %9, align 8, !tbaa !24
  %12 = icmp eq i64 %11, %7
  br i1 %12, label %DTGTK_IS_THUMBNAIL_BTN.exit.thread11, label %DTGTK_IS_THUMBNAIL_BTN.exit

DTGTK_IS_THUMBNAIL_BTN.exit:                      ; preds = %8, %10
  %13 = tail call i32 @g_type_check_instance_is_a(ptr noundef nonnull readonly %0, i64 noundef %7) #9
  %.not = icmp eq i32 %13, 0
  br i1 %.not, label %DTGTK_IS_THUMBNAIL_BTN.exit.thread, label %DTGTK_IS_THUMBNAIL_BTN.exit.thread11, !prof !26

DTGTK_IS_THUMBNAIL_BTN.exit.thread:               ; preds = %dtgtk_thumbnail_btn_get_type.exit.i, %DTGTK_IS_THUMBNAIL_BTN.exit
  tail call void @g_return_if_fail_warning(ptr noundef null, ptr noundef nonnull @__func__.dtgtk_thumbnail_btn_is_hidden, ptr noundef nonnull @.str.2) #7
  br label %23

DTGTK_IS_THUMBNAIL_BTN.exit.thread11:             ; preds = %10, %DTGTK_IS_THUMBNAIL_BTN.exit
  %14 = load atomic i64, ptr @dtgtk_thumbnail_btn_get_type.static_g_define_type_id seq_cst, align 8
  %.not.i.i6 = icmp eq i64 %14, 0
  br i1 %.not.i.i6, label %15, label %DTGTK_THUMBNAIL_BTN.exit

15:                                               ; preds = %DTGTK_IS_THUMBNAIL_BTN.exit.thread11
  %16 = tail call i32 @g_once_init_enter(ptr noundef nonnull @dtgtk_thumbnail_btn_get_type.static_g_define_type_id) #7
  %.not4.i.i8 = icmp eq i32 %16, 0
  br i1 %.not4.i.i8, label %DTGTK_THUMBNAIL_BTN.exit, label %17

17:                                               ; preds = %15
  %18 = tail call fastcc i64 @dtgtk_thumbnail_btn_get_type_once()
  tail call void @g_once_init_leave(ptr noundef nonnull @dtgtk_thumbnail_btn_get_type.static_g_define_type_id, i64 noundef %18) #7
  br label %DTGTK_THUMBNAIL_BTN.exit

DTGTK_THUMBNAIL_BTN.exit:                         ; preds = %DTGTK_IS_THUMBNAIL_BTN.exit.thread11, %15, %17
  %19 = load i64, ptr @dtgtk_thumbnail_btn_get_type.static_g_define_type_id, align 8, !tbaa !6
  %20 = tail call ptr @g_type_check_instance_cast(ptr noundef nonnull %0, i64 noundef %19) #7
  %21 = getelementptr inbounds nuw i8, ptr %20, i64 64
  %22 = load i32, ptr %21, align 8, !tbaa !27
  br label %23

23:                                               ; preds = %DTGTK_THUMBNAIL_BTN.exit, %DTGTK_IS_THUMBNAIL_BTN.exit.thread
  %.0 = phi i32 [ %22, %DTGTK_THUMBNAIL_BTN.exit ], [ 1, %DTGTK_IS_THUMBNAIL_BTN.exit.thread ]
  ret i32 %.0
}